CCS PCM C Compiler, Version 4.074, 38112               02-jul-13 02:26

               Filename: C:\Users\r5527821\Dropbox\pic\projpic\controle-cararduino\controle.lst

               ROM used: 176 words (9%)
                         Largest free fragment is 1872
               RAM used: 16 (7%) at main() level
                         17 (8%) worst case
               Stack:    2 worst case (0 in main + 2 for interrupts)

*
0000:  MOVLW  00
0001:  MOVWF  0A
0002:  GOTO   083
0003:  NOP
0004:  MOVWF  7F
0005:  SWAPF  03,W
0006:  CLRF   03
0007:  MOVWF  21
0008:  MOVF   7F,W
0009:  MOVWF  20
000A:  MOVF   0A,W
000B:  MOVWF  28
000C:  CLRF   0A
000D:  SWAPF  20,F
000E:  MOVF   04,W
000F:  MOVWF  22
0010:  MOVF   77,W
0011:  MOVWF  23
0012:  MOVF   78,W
0013:  MOVWF  24
0014:  MOVF   79,W
0015:  MOVWF  25
0016:  MOVF   7A,W
0017:  MOVWF  26
0018:  MOVF   7B,W
0019:  MOVWF  27
001A:  BCF    03.7
001B:  BCF    03.5
001C:  BTFSS  0B.3
001D:  GOTO   020
001E:  BTFSC  0B.0
001F:  GOTO   055
0020:  MOVF   22,W
0021:  MOVWF  04
0022:  MOVF   23,W
0023:  MOVWF  77
0024:  MOVF   24,W
0025:  MOVWF  78
0026:  MOVF   25,W
0027:  MOVWF  79
0028:  MOVF   26,W
0029:  MOVWF  7A
002A:  MOVF   27,W
002B:  MOVWF  7B
002C:  MOVF   28,W
002D:  MOVWF  0A
002E:  SWAPF  21,W
002F:  MOVWF  03
0030:  SWAPF  7F,F
0031:  SWAPF  7F,W
0032:  RETFIE
.................... #include "controle.h" 
.................... #include <16F628A.h> 
.................... //////// Standard Header file for the PIC16F628A device //////////////// 
.................... #device PIC16F628A 
.................... #list 
....................  
....................  
.................... #FUSES NOWDT                    //No Watch Dog Timer 
.................... #FUSES INTRC_IO                 //Internal RC Osc, no CLKOUT 
.................... #FUSES PUT                      //Power Up Timer 
.................... #FUSES NOPROTECT                //Code not protected from reading 
.................... #FUSES NOBROWNOUT               //No brownout reset 
.................... #FUSES NOMCLR                     //Master Clear pin enabled 
.................... #FUSES NOLVP                    //No low voltage prgming, B3(PIC16) or B5(PIC18) used for I/O 
.................... #FUSES NOCPD                    //No EE protection 
....................  
.................... #use delay(clock=4000000) 
.................... #use rs232(baud=19200,parity=N,xmit=PIN_A0,rcv=PIN_A1,bits=8) 
0033:  BSF    03.5
0034:  BCF    05.0
0035:  BCF    03.5
0036:  BCF    05.0
0037:  MOVLW  08
0038:  MOVWF  78
0039:  GOTO   03A
003A:  NOP
003B:  BSF    78.7
003C:  GOTO   04B
003D:  BCF    78.7
003E:  RRF    2A,F
003F:  BTFSC  03.0
0040:  BSF    05.0
0041:  BTFSS  03.0
0042:  BCF    05.0
0043:  BSF    78.6
0044:  GOTO   04B
0045:  BCF    78.6
0046:  DECFSZ 78,F
0047:  GOTO   03E
0048:  GOTO   049
0049:  NOP
004A:  BSF    05.0
004B:  MOVLW  0B
004C:  MOVWF  04
004D:  DECFSZ 04,F
004E:  GOTO   04D
004F:  NOP
0050:  BTFSC  78.7
0051:  GOTO   03D
0052:  BTFSC  78.6
0053:  GOTO   045
0054:  RETLW  00
....................  
....................  
.................... int direcao; 
.................... #int_RB 
.................... void  RB_isr(void)  
.................... { 
.................... if( !input(PIN_B4)) printf("E"); 
0055:  BSF    03.5
0056:  BSF    06.4
0057:  BCF    03.5
0058:  BTFSC  06.4
0059:  GOTO   05D
005A:  MOVLW  45
005B:  MOVWF  2A
005C:  CALL   033
.................... if( !input(PIN_B5)) printf("D"); 
005D:  BSF    03.5
005E:  BSF    06.5
005F:  BCF    03.5
0060:  BTFSC  06.5
0061:  GOTO   065
0062:  MOVLW  44
0063:  MOVWF  2A
0064:  CALL   033
.................... if( !input(PIN_B6)) printf("F"); 
0065:  BSF    03.5
0066:  BSF    06.6
0067:  BCF    03.5
0068:  BTFSC  06.6
0069:  GOTO   06D
006A:  MOVLW  46
006B:  MOVWF  2A
006C:  CALL   033
.................... if( !input(PIN_B7)) printf("T"); 
006D:  BSF    03.5
006E:  BSF    06.7
006F:  BCF    03.5
0070:  BTFSC  06.7
0071:  GOTO   075
0072:  MOVLW  54
0073:  MOVWF  2A
0074:  CALL   033
....................  
.................... direcao=input_b(); 
0075:  MOVLW  FF
0076:  BSF    03.5
0077:  MOVWF  06
0078:  BCF    03.5
0079:  MOVF   06,W
007A:  MOVWF  29
.................... if(direcao==255) printf("P"); 
007B:  INCFSZ 29,W
007C:  GOTO   080
007D:  MOVLW  50
007E:  MOVWF  2A
007F:  CALL   033
.................... //printf("para"); 
.................... } 
....................  
....................  
....................  
0080:  BCF    0B.0
0081:  BCF    0A.3
0082:  GOTO   020
.................... void main() 
.................... { 
0083:  CLRF   04
0084:  BCF    03.7
0085:  MOVLW  1F
0086:  ANDWF  03,F
0087:  BSF    03.5
0088:  BSF    0E.3
0089:  BCF    05.0
008A:  BCF    03.5
008B:  BSF    05.0
008C:  MOVLW  07
008D:  MOVWF  1F
....................  
....................    port_b_pullups(TRUE); 
008E:  BSF    03.5
008F:  BCF    01.7
....................    setup_timer_0(RTCC_INTERNAL|RTCC_DIV_1); 
0090:  MOVF   01,W
0091:  ANDLW  C7
0092:  IORLW  08
0093:  MOVWF  01
....................    setup_timer_1(T1_DISABLED); 
0094:  BCF    03.5
0095:  CLRF   10
....................    setup_timer_2(T2_DISABLED,0,1); 
0096:  MOVLW  00
0097:  MOVWF  78
0098:  MOVWF  12
0099:  MOVLW  00
009A:  BSF    03.5
009B:  MOVWF  12
....................    setup_comparator(NC_NC_NC_NC); 
009C:  MOVLW  07
009D:  BCF    03.5
009E:  MOVWF  1F
009F:  BSF    03.5
00A0:  MOVF   05,W
00A1:  MOVLW  03
00A2:  MOVWF  77
00A3:  DECFSZ 77,F
00A4:  GOTO   0A3
00A5:  BCF    03.5
00A6:  MOVF   1F,W
00A7:  BCF    0C.6
....................    setup_vref(FALSE); 
00A8:  BSF    03.5
00A9:  CLRF   1F
....................    enable_interrupts(INT_RB); 
00AA:  BCF    03.5
00AB:  BSF    0B.3
....................    enable_interrupts(GLOBAL); 
00AC:  MOVLW  C0
00AD:  IORWF  0B,F
.................... //Setup_Oscillator parameter not selected from Intr Oscillator Config tab 
....................     
....................     
....................    // TODO: USER CODE!! 
....................    while(true) 
....................    { 
....................  
....................     
....................    } 
00AE:  GOTO   0AE
.................... } 
00AF:  SLEEP

Configuration Fuses:
   Word  1: 3F10   NOWDT PUT NOPROTECT NOBROWNOUT NOMCLR NOLVP INTRC_IO NOCPD
